(dp0
Vengine
p1
Vxelatex
p2
sVpackages
p3
c__builtin__
set
p4
((lp5
Vtitletoc
p6
aVmathrsfs
p7
aVsubfigure
p8
aValgorithmic
p9
aValgorithm
p10
aVfancyhdr
p11
aVgeometry
p12
aVfontspec
p13
aVlistings
p14
aVamsmath
p15
aVmultirow
p16
aVurl
p17
aVxeCJK
p18
aVcite
p19
aVamssymb
p20
atp21
Rp22
sVfiles_with_guttermarks
p23
g4
((lp24
V/Users/hadziq/GitRepo/ntust-thesis/\u4e2d\u6587\u7248\u672c/frontpages/ntust_frontpages.tex
p25
aS'my_ntust_thesis.tex'
p26
atp27
Rp28
sVsynctex
p29
I01
s.