(dp0
Vengine
p1
Vxelatex
p2
sVpackages
p3
c__builtin__
set
p4
((lp5
tp6
Rp7
sVfiles_with_guttermarks
p8
g4
((lp9
V/Users/hadziq/GitRepo/ntust-thesis/\u4e2d\u6587\u7248\u672c/sections/relative-work.tex
p10
aV/Users/hadziq/GitRepo/ntust-thesis/\u4e2d\u6587\u7248\u672c/sections/./relative-work.tex
p11
aS'relative-work.tex'
p12
atp13
Rp14
sVsynctex
p15
I01
s.